; Function Attrs: null_pointer_is_valid sspstrong uwtable
define hidden nonnull ptr @get_eui64_name(ptr noundef %0) local_unnamed_addr #3 {
  %2 = load i8, ptr @gbl_resolv_flags, align 1, !range !16, !noundef !17
  %3 = trunc nuw i8 %2 to i1
  %4 = load ptr, ptr @eui64_hashtable, align 8
  %5 = tail call ptr @wmem_map_lookup(ptr noundef %4, ptr noundef %0)
  %6 = icmp eq ptr %5, null
  br i1 %6, label %7, label %18

7:                                                ; preds = %1
  %8 = load ptr, ptr @addr_resolv_scope, align 8
  %9 = tail call noalias dereferenceable_or_null(97) ptr @wmem_alloc(ptr noundef %8, i64 noundef 97) #26
  %10 = getelementptr inbounds nuw i8, ptr %9, i64 1
  %11 = load i64, ptr %0, align 1
  store i64 %11, ptr %10, align 1
  store i8 0, ptr %9, align 1
  %12 = getelementptr inbounds nuw i8, ptr %9, i64 9
  %13 = tail call ptr @bytes_to_hexstr_punct(ptr noundef nonnull %12, ptr noundef %0, i64 noundef 8, i8 noundef signext 58)
  store i8 0, ptr %13, align 1
  %14 = getelementptr inbounds nuw i8, ptr %9, i64 33
  store i8 0, ptr %14, align 1
  br i1 %3, label %.thread15.i, label %24

.thread15.i:                                      ; preds = %7
  %15 = tail call fastcc ptr @eui64_addr_resolve(ptr noundef %9)
  %16 = load ptr, ptr @eui64_hashtable, align 8
  %17 = tail call ptr @wmem_map_insert(ptr noundef %16, ptr noundef nonnull %10, ptr noundef %9)
  br label %.thread.i

18:                                               ; preds = %1
  br i1 %3, label %19, label %eui64_name_lookup.exit

19:                                               ; preds = %18
  %20 = load i8, ptr %5, align 1
  %21 = and i8 %20, 3
  %.not.i = icmp eq i8 %21, 0
  br i1 %.not.i, label %22, label %.thread.i

22:                                               ; preds = %19
  %23 = tail call fastcc ptr @eui64_addr_resolve(ptr noundef nonnull %5)
  br label %.thread.i

24:                                               ; preds = %7
  %25 = load ptr, ptr @eui64_hashtable, align 8
  %26 = tail call ptr @wmem_map_insert(ptr noundef %25, ptr noundef nonnull %10, ptr noundef %9)
  br label %eui64_name_lookup.exit

.thread.i:                                        ; preds = %22, %19, %.thread15.i
  %.012.i = phi ptr [ %9, %.thread15.i ], [ %5, %19 ], [ %5, %22 ]
  %27 = load i8, ptr %.012.i, align 1
  %28 = or i8 %27, 1
  store i8 %28, ptr %.012.i, align 1
  br label %eui64_name_lookup.exit

eui64_name_lookup.exit:                           ; preds = %18, %24, %.thread.i
  %.011.i = phi ptr [ %.012.i, %.thread.i ], [ %9, %24 ], [ %5, %18 ]
  %.v = select i1 %3, i64 33, i64 9
  %29 = getelementptr inbounds nuw i8, ptr %.011.i, i64 %.v
  ret ptr %29
}